target datalayout = "e-m:e-p270:32:32-p271:32:32-p272:64:64-i64:64-i128:128-f80:128-n8:16:32:64-S128"
target triple = "x86_64-pc-linux-gnu"

%"class.(anonymous namespace)::PseudoOpBuilder" = type { ptr, ptr, i32, %"class.clang::SourceLocation", i8, %"class.llvm::SmallVector" }
%"class.clang::SourceLocation" = type { i32 }
%"class.llvm::SmallVector" = type { %"class.llvm::SmallVectorImpl", %"struct.llvm::SmallVectorStorage" }
%"class.llvm::SmallVectorImpl" = type { %"class.llvm::SmallVectorTemplateBase" }
%"class.llvm::SmallVectorTemplateBase" = type { %"class.llvm::SmallVectorTemplateCommon" }
%"class.llvm::SmallVectorTemplateCommon" = type { %"class.llvm::SmallVectorBase" }
%"class.llvm::SmallVectorBase" = type { ptr, i32, i32 }
%"struct.llvm::SmallVectorStorage" = type { [32 x i8] }
%"class.(anonymous namespace)::MSPropertyOpBuilder" = type { %"class.(anonymous namespace)::PseudoOpBuilder", ptr, ptr, %"class.llvm::SmallVector" }
%class.anon.1496 = type { ptr }

; Function Attrs: mustprogress nounwind uwtable
define linkonce_odr hidden noundef ptr @_ZN4llvm25SmallVectorTemplateCommonIPN5clang4ExprEvE5beginEv(ptr noundef nonnull align 8 dereferenceable(16) %0) #0 comdat align 2 {
  %2 = alloca ptr, align 8
  store ptr %0, ptr %2, align 8
  %3 = load ptr, ptr %2, align 8
  %4 = getelementptr inbounds nuw %"class.llvm::SmallVectorBase", ptr %3, i32 0, i32 0
  %5 = load ptr, ptr %4, align 8
  ret ptr %5
}

; Function Attrs: mustprogress nounwind uwtable
define linkonce_odr hidden noundef nonnull align 8 dereferenceable(8) ptr @_ZN4llvm25SmallVectorTemplateCommonIPN5clang4ExprEvEixEm(ptr noundef nonnull align 8 dereferenceable(16) %0, i64 noundef %1) #0 comdat align 2 {
  %3 = alloca ptr, align 8
  %4 = alloca i64, align 8
  store ptr %0, ptr %3, align 8
  store i64 %1, ptr %4, align 8
  %5 = load ptr, ptr %3, align 8
  %6 = call noundef ptr @_ZN4llvm25SmallVectorTemplateCommonIPN5clang4ExprEvE5beginEv(ptr noundef nonnull align 8 dereferenceable(16) %5)
  %7 = load i64, ptr %4, align 8
  %8 = getelementptr inbounds ptr, ptr %6, i64 %7
  ret ptr %8
}

; Function Attrs: mustprogress nounwind uwtable
define internal noundef ptr @"_ZZN12_GLOBAL__N_119MSPropertyOpBuilder23rebuildAndCaptureObjectEPN5clang4ExprEENK3$_0clES3_j"(ptr noundef nonnull align 8 dereferenceable(8) %0, ptr noundef %1, i32 noundef %2) #0 align 2 {
  %4 = alloca ptr, align 8
  %5 = alloca ptr, align 8
  %6 = alloca ptr, align 8
  %7 = alloca i32, align 4
  store ptr %0, ptr %5, align 8
  store ptr %1, ptr %6, align 8
  store i32 %2, ptr %7, align 4
  %8 = load ptr, ptr %5, align 8
  %9 = getelementptr inbounds nuw %class.anon.1496, ptr %8, i32 0, i32 0
  %10 = load ptr, ptr %9, align 8
  %11 = load i32, ptr %7, align 4
  switch i32 %11, label %15 [
    i32 0, label %12
  ]

12:                                               ; preds = %3
  %13 = getelementptr inbounds nuw %"class.(anonymous namespace)::MSPropertyOpBuilder", ptr %10, i32 0, i32 2
  %14 = load ptr, ptr %13, align 8
  store ptr %14, ptr %4, align 8
  br label %22

15:                                               ; preds = %3
  %16 = getelementptr inbounds nuw %"class.(anonymous namespace)::MSPropertyOpBuilder", ptr %10, i32 0, i32 3
  %17 = load i32, ptr %7, align 4
  %18 = sub i32 %17, 1
  %19 = zext i32 %18 to i64
  %20 = call noundef nonnull align 8 dereferenceable(8) ptr @_ZN4llvm25SmallVectorTemplateCommonIPN5clang4ExprEvEixEm(ptr noundef nonnull align 8 dereferenceable(16) %16, i64 noundef %19)
  %21 = load ptr, ptr %20, align 8
  store ptr %21, ptr %4, align 8
  br label %22

22:                                               ; preds = %15, %12
  %23 = load ptr, ptr %4, align 8
  ret ptr %23
}

; Function Attrs: mustprogress nounwind uwtable
define internal noundef ptr @"_ZN4llvm12function_refIFPN5clang4ExprES3_jEE11callback_fnIZN12_GLOBAL__N_119MSPropertyOpBuilder23rebuildAndCaptureObjectES3_E3$_0EES3_lS3_j"(i64 noundef %0, ptr noundef %1, i32 noundef %2) #0 align 2 {
  %4 = alloca i64, align 8
  %5 = alloca ptr, align 8
  %6 = alloca i32, align 4
  store i64 %0, ptr %4, align 8
  store ptr %1, ptr %5, align 8
  store i32 %2, ptr %6, align 4
  %7 = load i64, ptr %4, align 8
  %8 = inttoptr i64 %7 to ptr
  %9 = load ptr, ptr %5, align 8
  %10 = load i32, ptr %6, align 4
  %11 = call noundef ptr @"_ZZN12_GLOBAL__N_119MSPropertyOpBuilder23rebuildAndCaptureObjectEPN5clang4ExprEENK3$_0clES3_j"(ptr noundef nonnull align 8 dereferenceable(8) %8, ptr noundef %9, i32 noundef %10)
  ret ptr %11
}