; Function Attrs: mustprogress nofree norecurse nosync nounwind willreturn memory(read, inaccessiblemem: none) uwtable
define internal noundef ptr @"_ZN4llvm12function_refIFPN5clang4ExprES3_jEE11callback_fnIZN12_GLOBAL__N_119MSPropertyOpBuilder23rebuildAndCaptureObjectES3_E3$_0EES3_lS3_j"(i64 noundef %0, ptr nocapture readnone %1, i32 noundef %2) #10 align 2 {
  %4 = inttoptr i64 %0 to ptr
  %.val = load ptr, ptr %4, align 8
  %cond.i = icmp eq i32 %2, 0
  br i1 %cond.i, label %5, label %7

5:                                                ; preds = %3
  %6 = getelementptr inbounds nuw i8, ptr %.val, i64 88
  br label %"_ZZN12_GLOBAL__N_119MSPropertyOpBuilder23rebuildAndCaptureObjectEPN5clang4ExprEENK3$_0clES3_j.exit"

7:                                                ; preds = %3
  %8 = getelementptr inbounds nuw i8, ptr %.val, i64 96
  %9 = add i32 %2, -1
  %10 = zext i32 %9 to i64
  %11 = load ptr, ptr %8, align 8
  %12 = getelementptr inbounds ptr, ptr %11, i64 %10
  br label %"_ZZN12_GLOBAL__N_119MSPropertyOpBuilder23rebuildAndCaptureObjectEPN5clang4ExprEENK3$_0clES3_j.exit"

"_ZZN12_GLOBAL__N_119MSPropertyOpBuilder23rebuildAndCaptureObjectEPN5clang4ExprEENK3$_0clES3_j.exit": ; preds = %5, %7
  %.0.in.i = phi ptr [ %6, %5 ], [ %12, %7 ]
  %.0.i = load ptr, ptr %.0.in.i, align 8
  ret ptr %.0.i
}